target datalayout = "e-m:e-p270:32:32-p271:32:32-p272:64:64-i64:64-i128:128-f80:128-n8:16:32:64-S128"
target triple = "x86_64-pc-linux-gnu"

%struct.stbi_io_callbacks = type { ptr, ptr, ptr }
%struct.stbi__context = type { i32, i32, i32, i32, %struct.stbi_io_callbacks, ptr, i32, i32, [128 x i8], i32, ptr, ptr, ptr, ptr }

; Function Attrs: mustprogress uwtable
define internal void @_ZL19stbi__refill_bufferP13stbi__context(ptr noundef %0) #3 {
  %2 = alloca ptr, align 8
  %3 = alloca i32, align 4
  store ptr %0, ptr %2, align 8, !tbaa !9
  call void @llvm.lifetime.start.p0(i64 4, ptr %3) #22
  %4 = load ptr, ptr %2, align 8, !tbaa !9
  %5 = getelementptr inbounds nuw %struct.stbi__context, ptr %4, i32 0, i32 4
  %6 = getelementptr inbounds nuw %struct.stbi_io_callbacks, ptr %5, i32 0, i32 0
  %7 = load ptr, ptr %6, align 8, !tbaa !24
  %8 = load ptr, ptr %2, align 8, !tbaa !9
  %9 = getelementptr inbounds nuw %struct.stbi__context, ptr %8, i32 0, i32 5
  %10 = load ptr, ptr %9, align 8, !tbaa !30
  %11 = load ptr, ptr %2, align 8, !tbaa !9
  %12 = getelementptr inbounds nuw %struct.stbi__context, ptr %11, i32 0, i32 8
  %13 = getelementptr inbounds [128 x i8], ptr %12, i64 0, i64 0
  %14 = load ptr, ptr %2, align 8, !tbaa !9
  %15 = getelementptr inbounds nuw %struct.stbi__context, ptr %14, i32 0, i32 7
  %16 = load i32, ptr %15, align 4, !tbaa !31
  %17 = call noundef i32 %7(ptr noundef %10, ptr noundef %13, i32 noundef %16)
  store i32 %17, ptr %3, align 4, !tbaa !10
  %18 = load ptr, ptr %2, align 8, !tbaa !9
  %19 = getelementptr inbounds nuw %struct.stbi__context, ptr %18, i32 0, i32 10
  %20 = load ptr, ptr %19, align 8, !tbaa !19
  %21 = load ptr, ptr %2, align 8, !tbaa !9
  %22 = getelementptr inbounds nuw %struct.stbi__context, ptr %21, i32 0, i32 12
  %23 = load ptr, ptr %22, align 8, !tbaa !27
  %24 = ptrtoint ptr %20 to i64
  %25 = ptrtoint ptr %23 to i64
  %26 = sub i64 %24, %25
  %27 = trunc i64 %26 to i32
  %28 = load ptr, ptr %2, align 8, !tbaa !9
  %29 = getelementptr inbounds nuw %struct.stbi__context, ptr %28, i32 0, i32 9
  %30 = load i32, ptr %29, align 8, !tbaa !26
  %31 = add nsw i32 %30, %27
  store i32 %31, ptr %29, align 8, !tbaa !26
  %32 = load i32, ptr %3, align 4, !tbaa !10
  %33 = icmp eq i32 %32, 0
  br i1 %33, label %34, label %51

34:                                               ; preds = %1
  %35 = load ptr, ptr %2, align 8, !tbaa !9
  %36 = getelementptr inbounds nuw %struct.stbi__context, ptr %35, i32 0, i32 6
  store i32 0, ptr %36, align 8, !tbaa !25
  %37 = load ptr, ptr %2, align 8, !tbaa !9
  %38 = getelementptr inbounds nuw %struct.stbi__context, ptr %37, i32 0, i32 8
  %39 = getelementptr inbounds [128 x i8], ptr %38, i64 0, i64 0
  %40 = load ptr, ptr %2, align 8, !tbaa !9
  %41 = getelementptr inbounds nuw %struct.stbi__context, ptr %40, i32 0, i32 10
  store ptr %39, ptr %41, align 8, !tbaa !19
  %42 = load ptr, ptr %2, align 8, !tbaa !9
  %43 = getelementptr inbounds nuw %struct.stbi__context, ptr %42, i32 0, i32 8
  %44 = getelementptr inbounds [128 x i8], ptr %43, i64 0, i64 0
  %45 = getelementptr inbounds i8, ptr %44, i64 1
  %46 = load ptr, ptr %2, align 8, !tbaa !9
  %47 = getelementptr inbounds nuw %struct.stbi__context, ptr %46, i32 0, i32 11
  store ptr %45, ptr %47, align 8, !tbaa !16
  %48 = load ptr, ptr %2, align 8, !tbaa !9
  %49 = getelementptr inbounds nuw %struct.stbi__context, ptr %48, i32 0, i32 10
  %50 = load ptr, ptr %49, align 8, !tbaa !19
  store i8 0, ptr %50, align 1, !tbaa !57
  br label %65

51:                                               ; preds = %1
  %52 = load ptr, ptr %2, align 8, !tbaa !9
  %53 = getelementptr inbounds nuw %struct.stbi__context, ptr %52, i32 0, i32 8
  %54 = getelementptr inbounds [128 x i8], ptr %53, i64 0, i64 0
  %55 = load ptr, ptr %2, align 8, !tbaa !9
  %56 = getelementptr inbounds nuw %struct.stbi__context, ptr %55, i32 0, i32 10
  store ptr %54, ptr %56, align 8, !tbaa !19
  %57 = load ptr, ptr %2, align 8, !tbaa !9
  %58 = getelementptr inbounds nuw %struct.stbi__context, ptr %57, i32 0, i32 8
  %59 = getelementptr inbounds [128 x i8], ptr %58, i64 0, i64 0
  %60 = load i32, ptr %3, align 4, !tbaa !10
  %61 = sext i32 %60 to i64
  %62 = getelementptr inbounds i8, ptr %59, i64 %61
  %63 = load ptr, ptr %2, align 8, !tbaa !9
  %64 = getelementptr inbounds nuw %struct.stbi__context, ptr %63, i32 0, i32 11
  store ptr %62, ptr %64, align 8, !tbaa !16
  br label %65

65:                                               ; preds = %51, %34
  call void @llvm.lifetime.end.p0(i64 4, ptr %3) #22
  ret void
}

; Function Attrs: inlinehint mustprogress uwtable
define internal noundef zeroext i8 @_ZL10stbi__get8P13stbi__context(ptr noundef %0) #8 {
  %2 = alloca i8, align 1
  %3 = alloca ptr, align 8
  store ptr %0, ptr %3, align 8, !tbaa !9
  %4 = load ptr, ptr %3, align 8, !tbaa !9
  %5 = getelementptr inbounds nuw %struct.stbi__context, ptr %4, i32 0, i32 10
  %6 = load ptr, ptr %5, align 8, !tbaa !19
  %7 = load ptr, ptr %3, align 8, !tbaa !9
  %8 = getelementptr inbounds nuw %struct.stbi__context, ptr %7, i32 0, i32 11
  %9 = load ptr, ptr %8, align 8, !tbaa !16
  %10 = icmp ult ptr %6, %9
  br i1 %10, label %11, label %17

11:                                               ; preds = %1
  %12 = load ptr, ptr %3, align 8, !tbaa !9
  %13 = getelementptr inbounds nuw %struct.stbi__context, ptr %12, i32 0, i32 10
  %14 = load ptr, ptr %13, align 8, !tbaa !19
  %15 = getelementptr inbounds nuw i8, ptr %14, i32 1
  store ptr %15, ptr %13, align 8, !tbaa !19
  %16 = load i8, ptr %14, align 1, !tbaa !57
  store i8 %16, ptr %2, align 1
  br label %30

17:                                               ; preds = %1
  %18 = load ptr, ptr %3, align 8, !tbaa !9
  %19 = getelementptr inbounds nuw %struct.stbi__context, ptr %18, i32 0, i32 6
  %20 = load i32, ptr %19, align 8, !tbaa !25
  %21 = icmp ne i32 %20, 0
  br i1 %21, label %22, label %29

22:                                               ; preds = %17
  %23 = load ptr, ptr %3, align 8, !tbaa !9
  call void @_ZL19stbi__refill_bufferP13stbi__context(ptr noundef %23)
  %24 = load ptr, ptr %3, align 8, !tbaa !9
  %25 = getelementptr inbounds nuw %struct.stbi__context, ptr %24, i32 0, i32 10
  %26 = load ptr, ptr %25, align 8, !tbaa !19
  %27 = getelementptr inbounds nuw i8, ptr %26, i32 1
  store ptr %27, ptr %25, align 8, !tbaa !19
  %28 = load i8, ptr %26, align 1, !tbaa !57
  store i8 %28, ptr %2, align 1
  br label %30

29:                                               ; preds = %17
  store i8 0, ptr %2, align 1
  br label %30

30:                                               ; preds = %29, %22, %11
  %31 = load i8, ptr %2, align 1
  ret i8 %31
}

; Function Attrs: mustprogress uwtable
define internal noundef i32 @_ZL13stbi__get16beP13stbi__context(ptr noundef %0) #3 {
  %2 = alloca ptr, align 8
  %3 = alloca i32, align 4
  store ptr %0, ptr %2, align 8, !tbaa !9
  call void @llvm.lifetime.start.p0(i64 4, ptr %3) #22
  %4 = load ptr, ptr %2, align 8, !tbaa !9
  %5 = call noundef zeroext i8 @_ZL10stbi__get8P13stbi__context(ptr noundef %4)
  %6 = zext i8 %5 to i32
  store i32 %6, ptr %3, align 4, !tbaa !10
  %7 = load i32, ptr %3, align 4, !tbaa !10
  %8 = shl i32 %7, 8
  %9 = load ptr, ptr %2, align 8, !tbaa !9
  %10 = call noundef zeroext i8 @_ZL10stbi__get8P13stbi__context(ptr noundef %9)
  %11 = zext i8 %10 to i32
  %12 = add nsw i32 %8, %11
  call void @llvm.lifetime.end.p0(i64 4, ptr %3) #22
  ret i32 %12
}